; ModuleID = '20/1036.c'
source_filename = "20/1036.c"
target datalayout = "e-m:e-p270:32:32-p271:32:32-p272:64:64-i64:64-f80:128-n8:16:32:64-S128"
target triple = "x86_64-pc-linux-gnu"

@.str = private unnamed_addr constant [5 x i8] c"%s%s\00", align 1
@.str.1 = private unnamed_addr constant [3 x i8] c"%c\00", align 1
@.str.2 = private unnamed_addr constant [3 x i8] c"%s\00", align 1
@.str.3 = private unnamed_addr constant [2 x i8] c"\0A\00", align 1

; Function Attrs: noinline nounwind uwtable
define dso_local i32 @main() #0 {
  %1 = alloca i32, align 4
  %2 = alloca i32, align 4
  %3 = alloca i32, align 4
  %4 = alloca i32, align 4
  %5 = alloca [11 x i8], align 1
  %6 = alloca [4 x i8], align 1
  store i32 0, i32* %1, align 4
  br label %7

7:                                                ; preds = %91, %0
  %8 = getelementptr inbounds [11 x i8], [11 x i8]* %5, i64 0, i64 0
  %9 = getelementptr inbounds [4 x i8], [4 x i8]* %6, i64 0, i64 0
  %10 = call i32 (i8*, ...) @__isoc99_scanf(i8* getelementptr inbounds ([5 x i8], [5 x i8]* @.str, i64 0, i64 0), i8* %8, i8* %9)
  %11 = icmp ne i32 %10, -1
  br i1 %11, label %12, label %93

12:                                               ; preds = %7
  store i32 0, i32* %4, align 4
  store i32 0, i32* %2, align 4
  br label %13

13:                                               ; preds = %34, %12
  %14 = load i32, i32* %2, align 4
  %15 = sext i32 %14 to i64
  %16 = getelementptr inbounds [11 x i8], [11 x i8]* %5, i64 0, i64 %15
  %17 = load i8, i8* %16, align 1
  %18 = icmp ne i8 %17, 0
  br i1 %18, label %19, label %37

19:                                               ; preds = %13
  %20 = load i32, i32* %2, align 4
  %21 = sext i32 %20 to i64
  %22 = getelementptr inbounds [11 x i8], [11 x i8]* %5, i64 0, i64 %21
  %23 = load i8, i8* %22, align 1
  %24 = sext i8 %23 to i32
  %25 = load i32, i32* %4, align 4
  %26 = icmp sgt i32 %24, %25
  br i1 %26, label %27, label %33

27:                                               ; preds = %19
  %28 = load i32, i32* %2, align 4
  %29 = sext i32 %28 to i64
  %30 = getelementptr inbounds [11 x i8], [11 x i8]* %5, i64 0, i64 %29
  %31 = load i8, i8* %30, align 1
  %32 = sext i8 %31 to i32
  store i32 %32, i32* %4, align 4
  br label %33

33:                                               ; preds = %27, %19
  br label %34

34:                                               ; preds = %33
  %35 = load i32, i32* %2, align 4
  %36 = add nsw i32 %35, 1
  store i32 %36, i32* %2, align 4
  br label %13

37:                                               ; preds = %13
  store i32 0, i32* %2, align 4
  br label %38

38:                                               ; preds = %69, %37
  %39 = load i32, i32* %2, align 4
  %40 = sext i32 %39 to i64
  %41 = getelementptr inbounds [11 x i8], [11 x i8]* %5, i64 0, i64 %40
  %42 = load i8, i8* %41, align 1
  %43 = icmp ne i8 %42, 0
  br i1 %43, label %44, label %72

44:                                               ; preds = %38
  %45 = load i32, i32* %2, align 4
  %46 = sext i32 %45 to i64
  %47 = getelementptr inbounds [11 x i8], [11 x i8]* %5, i64 0, i64 %46
  %48 = load i8, i8* %47, align 1
  %49 = sext i8 %48 to i32
  %50 = load i32, i32* %4, align 4
  %51 = icmp slt i32 %49, %50
  br i1 %51, label %52, label %59

52:                                               ; preds = %44
  %53 = load i32, i32* %2, align 4
  %54 = sext i32 %53 to i64
  %55 = getelementptr inbounds [11 x i8], [11 x i8]* %5, i64 0, i64 %54
  %56 = load i8, i8* %55, align 1
  %57 = sext i8 %56 to i32
  %58 = call i32 (i8*, ...) @printf(i8* getelementptr inbounds ([3 x i8], [3 x i8]* @.str.1, i64 0, i64 0), i32 %57)
  br label %68

59:                                               ; preds = %44
  %60 = load i32, i32* %2, align 4
  %61 = sext i32 %60 to i64
  %62 = getelementptr inbounds [11 x i8], [11 x i8]* %5, i64 0, i64 %61
  %63 = load i8, i8* %62, align 1
  %64 = sext i8 %63 to i32
  %65 = call i32 (i8*, ...) @printf(i8* getelementptr inbounds ([3 x i8], [3 x i8]* @.str.1, i64 0, i64 0), i32 %64)
  %66 = getelementptr inbounds [4 x i8], [4 x i8]* %6, i64 0, i64 0
  %67 = call i32 (i8*, ...) @printf(i8* getelementptr inbounds ([3 x i8], [3 x i8]* @.str.2, i64 0, i64 0), i8* %66)
  br label %72

68:                                               ; preds = %52
  br label %69

69:                                               ; preds = %68
  %70 = load i32, i32* %2, align 4
  %71 = add nsw i32 %70, 1
  store i32 %71, i32* %2, align 4
  br label %38

72:                                               ; preds = %59, %38
  %73 = load i32, i32* %2, align 4
  %74 = add nsw i32 %73, 1
  store i32 %74, i32* %3, align 4
  br label %75

75:                                               ; preds = %88, %72
  %76 = load i32, i32* %3, align 4
  %77 = sext i32 %76 to i64
  %78 = getelementptr inbounds [11 x i8], [11 x i8]* %5, i64 0, i64 %77
  %79 = load i8, i8* %78, align 1
  %80 = icmp ne i8 %79, 0
  br i1 %80, label %81, label %91

81:                                               ; preds = %75
  %82 = load i32, i32* %3, align 4
  %83 = sext i32 %82 to i64
  %84 = getelementptr inbounds [11 x i8], [11 x i8]* %5, i64 0, i64 %83
  %85 = load i8, i8* %84, align 1
  %86 = sext i8 %85 to i32
  %87 = call i32 (i8*, ...) @printf(i8* getelementptr inbounds ([3 x i8], [3 x i8]* @.str.1, i64 0, i64 0), i32 %86)
  br label %88

88:                                               ; preds = %81
  %89 = load i32, i32* %3, align 4
  %90 = add nsw i32 %89, 1
  store i32 %90, i32* %3, align 4
  br label %75

91:                                               ; preds = %75
  %92 = call i32 (i8*, ...) @printf(i8* getelementptr inbounds ([2 x i8], [2 x i8]* @.str.3, i64 0, i64 0))
  br label %7

93:                                               ; preds = %7
  ret i32 0
}

declare dso_local i32 @__isoc99_scanf(i8*, ...) #1

declare dso_local i32 @printf(i8*, ...) #1


!llvm.module.flags = !{!0}
!llvm.ident = !{!1}

!0 = !{i32 1, !"wchar_size", i32 4}
!1 = !{!"clang version 10.0.0-4ubuntu1 "}
